target datalayout = "e-m:e-p270:32:32-p271:32:32-p272:64:64-i64:64-i128:128-f80:128-n8:16:32:64-S128"
target triple = "x86_64-pc-linux-gnu"

%struct.RelFileLocator = type { i32, i32, i32 }
%struct.BulkWriteState = type { ptr, i32, i8, i32, [32 x %struct.PendingWrite], i32, i64, ptr }
%struct.PendingWrite = type { ptr, i32, i8 }
%struct.SMgrRelationData = type { %struct.RelFileLocatorBackend, i32, [4 x i32], i32, [4 x i32], [4 x ptr], i32, %struct.dlist_node }
%struct.RelFileLocatorBackend = type { %struct.RelFileLocator, i32 }
%struct.dlist_node = type { ptr, ptr }
%struct.PGPROC = type { %struct.dlist_node, ptr, ptr, i32, %struct.Latch, i32, i32, i32, i32, %struct.anon, i32, i32, i32, i8, i8, i8, i8, %struct.proclist_node, %struct.proclist_node, ptr, ptr, i32, i32, %struct.pg_atomic_uint64, i32, i8, i64, i32, %struct.dlist_node, [16 x %struct.dlist_head], %struct.XidCacheStatus, %struct.XidCache, i8, %struct.pg_atomic_uint32, i32, i32, i8, %struct.pg_atomic_uint32, i32, i32, i64, i64, %struct.LWLock, ptr, ptr, i8, i32, ptr, %struct.dlist_head, %struct.dlist_node }
%struct.Latch = type { i32, i32, i8, i32 }
%struct.anon = type { i32, i32 }
%struct.proclist_node = type { i32, i32 }
%struct.pg_atomic_uint64 = type { i64 }
%struct.XidCacheStatus = type { i8, i8 }
%struct.XidCache = type { [64 x i32] }
%struct.pg_atomic_uint32 = type { i32 }
%struct.LWLock = type { i16, %struct.pg_atomic_uint32, %struct.proclist_head }
%struct.proclist_head = type { i32, i32 }
%struct.dlist_head = type { %struct.dlist_node }

@MyProc = external global ptr, align 8
@.str = private unnamed_addr constant [60 x i8] c"flushed relation because a checkpoint occurred concurrently\00", align 1
@.str.1 = private unnamed_addr constant [13 x i8] c"bulk_write.c\00", align 1
@__func__.smgr_bulk_finish = private unnamed_addr constant [17 x i8] c"smgr_bulk_finish\00", align 1

; Function Attrs: nounwind uwtable
define dso_local void @smgr_bulk_finish(ptr noundef %0) #0 {
  %2 = alloca ptr, align 8
  store ptr %0, ptr %2, align 8
  %3 = load ptr, ptr %2, align 8
  call void @smgr_bulk_flush(ptr noundef %3)
  %4 = load ptr, ptr %2, align 8
  %5 = getelementptr inbounds nuw %struct.BulkWriteState, ptr %4, i32 0, i32 0
  %6 = load ptr, ptr %5, align 8
  %7 = getelementptr inbounds nuw %struct.SMgrRelationData, ptr %6, i32 0, i32 0
  %8 = getelementptr inbounds nuw %struct.RelFileLocatorBackend, ptr %7, i32 0, i32 1
  %9 = load i32, ptr %8, align 4
  %10 = icmp ne i32 %9, -1
  br i1 %10, label %11, label %12

11:                                               ; preds = %1
  br label %67

12:                                               ; preds = %1
  %13 = load ptr, ptr %2, align 8
  %14 = getelementptr inbounds nuw %struct.BulkWriteState, ptr %13, i32 0, i32 2
  %15 = load i8, ptr %14, align 4, !range !4, !noundef !5
  %16 = trunc i8 %15 to i1
  br i1 %16, label %24, label %17

17:                                               ; preds = %12
  %18 = load ptr, ptr %2, align 8
  %19 = getelementptr inbounds nuw %struct.BulkWriteState, ptr %18, i32 0, i32 0
  %20 = load ptr, ptr %19, align 8
  %21 = load ptr, ptr %2, align 8
  %22 = getelementptr inbounds nuw %struct.BulkWriteState, ptr %21, i32 0, i32 1
  %23 = load i32, ptr %22, align 8
  call void @smgrregistersync(ptr noundef %20, i32 noundef %23)
  br label %66

24:                                               ; preds = %12
  %25 = load ptr, ptr @MyProc, align 8
  %26 = getelementptr inbounds nuw %struct.PGPROC, ptr %25, i32 0, i32 24
  %27 = load i32, ptr %26, align 8
  %28 = or i32 %27, 1
  store i32 %28, ptr %26, align 8
  %29 = load ptr, ptr %2, align 8
  %30 = getelementptr inbounds nuw %struct.BulkWriteState, ptr %29, i32 0, i32 6
  %31 = load i64, ptr %30, align 8
  %32 = call i64 @GetRedoRecPtr()
  %33 = icmp ne i64 %31, %32
  br i1 %33, label %34, label %54

34:                                               ; preds = %24
  %35 = load ptr, ptr @MyProc, align 8
  %36 = getelementptr inbounds nuw %struct.PGPROC, ptr %35, i32 0, i32 24
  %37 = load i32, ptr %36, align 8
  %38 = and i32 %37, -2
  store i32 %38, ptr %36, align 8
  %39 = load ptr, ptr %2, align 8
  %40 = getelementptr inbounds nuw %struct.BulkWriteState, ptr %39, i32 0, i32 0
  %41 = load ptr, ptr %40, align 8
  %42 = load ptr, ptr %2, align 8
  %43 = getelementptr inbounds nuw %struct.BulkWriteState, ptr %42, i32 0, i32 1
  %44 = load i32, ptr %43, align 8
  call void @smgrimmedsync(ptr noundef %41, i32 noundef %44)
  br label %45

45:                                               ; preds = %34
  br i1 false, label %46, label %48

46:                                               ; preds = %45
  %47 = call zeroext i1 @errstart_cold(i32 noundef 14, ptr noundef null) #8
  br i1 %47, label %50, label %52

48:                                               ; preds = %45
  %49 = call zeroext i1 @errstart(i32 noundef 14, ptr noundef null)
  br i1 %49, label %50, label %52

50:                                               ; preds = %48, %46
  %51 = call i32 (ptr, ...) @errmsg_internal(ptr noundef @.str)
  call void @errfinish(ptr noundef @.str.1, i32 noundef 214, ptr noundef @__func__.smgr_bulk_finish)
  br label %52

52:                                               ; preds = %50, %48, %46
  br label %53

53:                                               ; preds = %52
  br label %65

54:                                               ; preds = %24
  %55 = load ptr, ptr %2, align 8
  %56 = getelementptr inbounds nuw %struct.BulkWriteState, ptr %55, i32 0, i32 0
  %57 = load ptr, ptr %56, align 8
  %58 = load ptr, ptr %2, align 8
  %59 = getelementptr inbounds nuw %struct.BulkWriteState, ptr %58, i32 0, i32 1
  %60 = load i32, ptr %59, align 8
  call void @smgrregistersync(ptr noundef %57, i32 noundef %60)
  %61 = load ptr, ptr @MyProc, align 8
  %62 = getelementptr inbounds nuw %struct.PGPROC, ptr %61, i32 0, i32 24
  %63 = load i32, ptr %62, align 8
  %64 = and i32 %63, -2
  store i32 %64, ptr %62, align 8
  br label %65

65:                                               ; preds = %54, %53
  br label %66

66:                                               ; preds = %65, %17
  br label %67

67:                                               ; preds = %66, %11
  ret void
}