; Function Attrs: nounwind uwtable
define dso_local void @smgr_bulk_finish(ptr noundef %0) local_unnamed_addr #0 {
  tail call fastcc void @smgr_bulk_flush(ptr noundef %0)
  %2 = load ptr, ptr %0, align 8
  %3 = getelementptr inbounds nuw i8, ptr %2, i64 12
  %4 = load i32, ptr %3, align 4
  %.not = icmp eq i32 %4, -1
  br i1 %.not, label %5, label %39

5:                                                ; preds = %1
  %6 = getelementptr inbounds nuw i8, ptr %0, i64 12
  %7 = load i8, ptr %6, align 4, !range !5, !noundef !6
  %8 = trunc nuw i8 %7 to i1
  br i1 %8, label %12, label %9

9:                                                ; preds = %5
  %10 = getelementptr inbounds nuw i8, ptr %0, i64 8
  %11 = load i32, ptr %10, align 8
  tail call void @smgrregistersync(ptr noundef nonnull %2, i32 noundef %11) #4
  br label %39

12:                                               ; preds = %5
  %13 = load ptr, ptr @MyProc, align 8
  %14 = getelementptr inbounds nuw i8, ptr %13, i64 144
  %15 = load i32, ptr %14, align 8
  %16 = or i32 %15, 1
  store i32 %16, ptr %14, align 8
  %17 = getelementptr inbounds nuw i8, ptr %0, i64 544
  %18 = load i64, ptr %17, align 8
  %19 = tail call i64 @GetRedoRecPtr() #4
  %.not10 = icmp eq i64 %18, %19
  br i1 %.not10, label %31, label %20

20:                                               ; preds = %12
  %21 = load ptr, ptr @MyProc, align 8
  %22 = getelementptr inbounds nuw i8, ptr %21, i64 144
  %23 = load i32, ptr %22, align 8
  %24 = and i32 %23, -2
  store i32 %24, ptr %22, align 8
  %25 = load ptr, ptr %0, align 8
  %26 = getelementptr inbounds nuw i8, ptr %0, i64 8
  %27 = load i32, ptr %26, align 8
  tail call void @smgrimmedsync(ptr noundef %25, i32 noundef %27) #4
  %28 = tail call zeroext i1 @errstart(i32 noundef 14, ptr noundef null) #4
  br i1 %28, label %29, label %39

29:                                               ; preds = %20
  %30 = tail call i32 (ptr, ...) @errmsg_internal(ptr noundef nonnull @.str) #4
  tail call void @errfinish(ptr noundef nonnull @.str.1, i32 noundef 214, ptr noundef nonnull @__func__.smgr_bulk_finish) #4
  br label %39

31:                                               ; preds = %12
  %32 = load ptr, ptr %0, align 8
  %33 = getelementptr inbounds nuw i8, ptr %0, i64 8
  %34 = load i32, ptr %33, align 8
  tail call void @smgrregistersync(ptr noundef %32, i32 noundef %34) #4
  %35 = load ptr, ptr @MyProc, align 8
  %36 = getelementptr inbounds nuw i8, ptr %35, i64 144
  %37 = load i32, ptr %36, align 8
  %38 = and i32 %37, -2
  store i32 %38, ptr %36, align 8
  br label %39

39:                                               ; preds = %9, %29, %20, %31, %1
  ret void
}